; Function Attrs: mustprogress uwtable
define internal void @_ZN11opencv_testL54gtest_Size_MatType_OutMatDepth_integral_EvalGenerator_Ev(ptr dead_on_unwind noalias writable sret(%"class.testing::internal::ParamGenerator") align 8 %0) #4 {
  %2 = alloca %"class.testing::internal::CartesianProductHolder3", align 8
  call void @llvm.lifetime.start.p0(i64 60, ptr nonnull %2) #31
  %.sroa.03.0.copyload = load i64, ptr @_ZN4perfL5szVGAE, align 8
  %.sroa.02.0.copyload = load i64, ptr @_ZN4perfL6sz720pE, align 8
  %.sroa.01.0.copyload = load i64, ptr @_ZN4perfL7sz1080pE, align 8
  %.sroa.0.0.copyload = load i64, ptr @_ZN4perfL5szODDE, align 8
  store i64 %.sroa.03.0.copyload, ptr %2, align 8, !alias.scope !75
  %3 = getelementptr inbounds nuw i8, ptr %2, i64 8
  store i64 %.sroa.02.0.copyload, ptr %3, align 8, !alias.scope !75
  %4 = getelementptr inbounds nuw i8, ptr %2, i64 16
  store i64 %.sroa.01.0.copyload, ptr %4, align 8, !alias.scope !75
  %5 = getelementptr inbounds nuw i8, ptr %2, i64 24
  store i64 %.sroa.0.0.copyload, ptr %5, align 8, !alias.scope !75
  %6 = getelementptr inbounds nuw i8, ptr %2, i64 32
  store i32 0, ptr %6, align 8, !tbaa !78, !alias.scope !75
  %7 = getelementptr inbounds nuw i8, ptr %2, i64 36
  store i32 8, ptr %7, align 4, !tbaa !80, !alias.scope !75
  %8 = getelementptr inbounds nuw i8, ptr %2, i64 40
  store i32 16, ptr %8, align 8, !tbaa !81, !alias.scope !75
  %9 = getelementptr inbounds nuw i8, ptr %2, i64 44
  store i32 24, ptr %9, align 4, !tbaa !82, !alias.scope !75
  %10 = getelementptr inbounds nuw i8, ptr %2, i64 48
  store i32 4, ptr %10, align 8, !tbaa !83, !alias.scope !75
  %11 = getelementptr inbounds nuw i8, ptr %2, i64 52
  store i32 5, ptr %11, align 4, !tbaa !85, !alias.scope !75
  %12 = getelementptr inbounds nuw i8, ptr %2, i64 56
  store i32 6, ptr %12, align 8, !tbaa !86, !alias.scope !75
  call fastcc void @_ZNK7testing8internal23CartesianProductHolder3INS0_11ValueArray4IN2cv5Size_IiEES5_S5_S5_EENS2_IiiiiEENS0_11ValueArray3IiiiEEEcvNS0_14ParamGeneratorISt5tupleIJT_T0_T1_EEEEIS5_N4perf7MatTypeENSJ_12_GLOBAL__N_18MatDepthEEEv(ptr dead_on_unwind noalias writable align 8 %0, ptr noundef nonnull align 4 dereferenceable(60) %2)
  call void @llvm.lifetime.end.p0(i64 60, ptr nonnull %2) #31
  ret void
}